target datalayout = "e-m:e-p270:32:32-p271:32:32-p272:64:64-i64:64-i128:128-f80:128-n8:16:32:64-S128"
target triple = "x86_64-pc-linux-gnu"

%struct._GtkWidgetClass = type { %struct._GObjectClass, i32, ptr, ptr, ptr, ptr, ptr, ptr, ptr, ptr, ptr, ptr, ptr, ptr, ptr, ptr, ptr, ptr, ptr, ptr, ptr, ptr, ptr, ptr, ptr, ptr, ptr, ptr, ptr, ptr, ptr, ptr, ptr, ptr, ptr, ptr, ptr, ptr, ptr, ptr, ptr, ptr, ptr, ptr, ptr, ptr, ptr, ptr, ptr, ptr, ptr, ptr, ptr, ptr, ptr, ptr, ptr, ptr, ptr, ptr, ptr, ptr, ptr, ptr, ptr, ptr, ptr, ptr, ptr, ptr, ptr, ptr, ptr, ptr, ptr, ptr, ptr, ptr, ptr, ptr, ptr, ptr, ptr, ptr, ptr, ptr, ptr }
%struct._GObjectClass = type { %struct._GTypeClass, ptr, ptr, ptr, ptr, ptr, ptr, ptr, ptr, ptr, i64, [6 x ptr] }
%struct._GTypeClass = type { i64 }

@_ZL12parent_class = internal global ptr null, align 8

; Function Attrs: mustprogress uwtable
define internal void @_ZL24cvImageWidget_class_initPvS_(ptr noundef %0, ptr noundef %1) #4 {
  %3 = alloca ptr, align 8
  %4 = alloca ptr, align 8
  %5 = alloca ptr, align 8
  %6 = alloca ptr, align 8
  store ptr %0, ptr %3, align 8, !tbaa !31
  store ptr %1, ptr %4, align 8, !tbaa !31
  call void @llvm.lifetime.start.p0(i64 8, ptr %5) #3
  %7 = load ptr, ptr %3, align 8, !tbaa !31
  store ptr %7, ptr %5, align 8, !tbaa !32
  call void @llvm.lifetime.start.p0(i64 8, ptr %6) #3
  %8 = load ptr, ptr %5, align 8, !tbaa !32
  %9 = call i64 @gtk_widget_get_type() #28
  %10 = call ptr @g_type_check_class_cast(ptr noundef %8, i64 noundef %9)
  store ptr %10, ptr %6, align 8, !tbaa !34
  %11 = call i64 @gtk_widget_get_type() #28
  %12 = call ptr @g_type_class_peek(i64 noundef %11)
  %13 = call i64 @gtk_widget_get_type() #28
  %14 = call ptr @g_type_check_class_cast(ptr noundef %12, i64 noundef %13)
  store ptr %14, ptr @_ZL12parent_class, align 8, !tbaa !34
  %15 = load ptr, ptr %6, align 8, !tbaa !34
  %16 = getelementptr inbounds nuw %struct._GtkWidgetClass, ptr %15, i32 0, i32 3
  store ptr @_ZL21cvImageWidget_destroyP10_GtkWidget, ptr %16, align 8, !tbaa !36
  %17 = load ptr, ptr %6, align 8, !tbaa !34
  %18 = getelementptr inbounds nuw %struct._GtkWidgetClass, ptr %17, i32 0, i32 24
  store ptr @_ZL33cvImageWidget_get_preferred_widthP10_GtkWidgetPiS1_, ptr %18, align 8, !tbaa !42
  %19 = load ptr, ptr %6, align 8, !tbaa !34
  %20 = getelementptr inbounds nuw %struct._GtkWidgetClass, ptr %19, i32 0, i32 22
  store ptr @_ZL34cvImageWidget_get_preferred_heightP10_GtkWidgetPiS1_, ptr %20, align 8, !tbaa !43
  %21 = load ptr, ptr %6, align 8, !tbaa !34
  %22 = getelementptr inbounds nuw %struct._GtkWidgetClass, ptr %21, i32 0, i32 9
  store ptr @_ZL21cvImageWidget_realizeP10_GtkWidget, ptr %22, align 8, !tbaa !44
  %23 = load ptr, ptr %6, align 8, !tbaa !34
  %24 = getelementptr inbounds nuw %struct._GtkWidgetClass, ptr %23, i32 0, i32 11
  store ptr @_ZL27cvImageWidget_size_allocateP10_GtkWidgetP20_cairo_rectangle_int, ptr %24, align 8, !tbaa !45
  %25 = load ptr, ptr %6, align 8, !tbaa !34
  %26 = getelementptr inbounds nuw %struct._GtkWidgetClass, ptr %25, i32 0, i32 32
  store ptr null, ptr %26, align 8, !tbaa !46
  %27 = load ptr, ptr %6, align 8, !tbaa !34
  %28 = getelementptr inbounds nuw %struct._GtkWidgetClass, ptr %27, i32 0, i32 33
  store ptr null, ptr %28, align 8, !tbaa !47
  %29 = load ptr, ptr %6, align 8, !tbaa !34
  %30 = getelementptr inbounds nuw %struct._GtkWidgetClass, ptr %29, i32 0, i32 35
  store ptr null, ptr %30, align 8, !tbaa !48
  call void @llvm.lifetime.end.p0(i64 8, ptr %6) #3
  call void @llvm.lifetime.end.p0(i64 8, ptr %5) #3
  ret void
}