; Function Attrs: mustprogress uwtable
define internal void @_ZL24cvImageWidget_class_initPvS_(ptr noundef %0, ptr readnone captures(none) %1) #3 {
  %3 = tail call i64 @gtk_widget_get_type() #30
  %4 = tail call ptr @g_type_check_class_cast(ptr noundef %0, i64 noundef %3)
  %5 = tail call ptr @g_type_class_peek(i64 noundef %3)
  %6 = tail call ptr @g_type_check_class_cast(ptr noundef %5, i64 noundef %3)
  store ptr %6, ptr @_ZL12parent_class, align 8, !tbaa !23
  %7 = getelementptr inbounds nuw i8, ptr %4, i64 152
  store ptr @_ZL21cvImageWidget_destroyP10_GtkWidget, ptr %7, align 8, !tbaa !25
  %8 = getelementptr inbounds nuw i8, ptr %4, i64 320
  store ptr @_ZL33cvImageWidget_get_preferred_widthP10_GtkWidgetPiS1_, ptr %8, align 8, !tbaa !31
  %9 = getelementptr inbounds nuw i8, ptr %4, i64 304
  store ptr @_ZL34cvImageWidget_get_preferred_heightP10_GtkWidgetPiS1_, ptr %9, align 8, !tbaa !32
  %10 = getelementptr inbounds nuw i8, ptr %4, i64 200
  store ptr @_ZL21cvImageWidget_realizeP10_GtkWidget, ptr %10, align 8, !tbaa !33
  %11 = getelementptr inbounds nuw i8, ptr %4, i64 216
  store ptr @_ZL27cvImageWidget_size_allocateP10_GtkWidgetP20_cairo_rectangle_int, ptr %11, align 8, !tbaa !34
  %12 = getelementptr inbounds nuw i8, ptr %4, i64 384
  %13 = getelementptr inbounds nuw i8, ptr %4, i64 408
  store ptr null, ptr %13, align 8, !tbaa !35
  tail call void @llvm.memset.p0.i64(ptr noundef nonnull align 8 dereferenceable(16) %12, i8 0, i64 16, i1 false)
  ret void
}